; Function Attrs: nofree norecurse nosync nounwind memory(argmem: readwrite) uwtable
define internal void @bayer_grbg16be_to_rgb24_copy(ptr noundef readonly captures(none) %0, i32 noundef %1, ptr noundef writeonly captures(none) %2, i32 noundef %3, i32 noundef %4) unnamed_addr #0 {
  %6 = icmp sgt i32 %4, 0
  br i1 %6, label %.lr.ph, label %._crit_edge

.lr.ph:                                           ; preds = %5
  %7 = sext i32 %1 to i64
  %8 = sext i32 %3 to i64
  br label %9

9:                                                ; preds = %.lr.ph, %9
  %.044 = phi i32 [ 0, %.lr.ph ], [ %43, %9 ]
  %.04043 = phi ptr [ %0, %.lr.ph ], [ %41, %9 ]
  %.04142 = phi ptr [ %2, %.lr.ph ], [ %42, %9 ]
  %10 = getelementptr inbounds i8, ptr %.04043, i64 %7
  %11 = load i16, ptr %10, align 1, !tbaa !61
  %12 = trunc i16 %11 to i8
  %13 = getelementptr i8, ptr %.04142, i64 %8
  %14 = getelementptr i8, ptr %13, i64 2
  store i8 %12, ptr %14, align 1, !tbaa !61
  %15 = getelementptr i8, ptr %13, i64 5
  store i8 %12, ptr %15, align 1, !tbaa !61
  %16 = getelementptr inbounds nuw i8, ptr %.04142, i64 5
  store i8 %12, ptr %16, align 1, !tbaa !61
  %17 = getelementptr inbounds nuw i8, ptr %.04142, i64 2
  store i8 %12, ptr %17, align 1, !tbaa !61
  %18 = load i16, ptr %.04043, align 1, !tbaa !61
  %19 = trunc i16 %18 to i8
  %20 = getelementptr inbounds nuw i8, ptr %.04142, i64 1
  store i8 %19, ptr %20, align 1, !tbaa !61
  %21 = getelementptr i8, ptr %10, i64 2
  %22 = load i16, ptr %21, align 1, !tbaa !61
  %23 = trunc i16 %22 to i8
  %24 = getelementptr i8, ptr %13, i64 4
  store i8 %23, ptr %24, align 1, !tbaa !61
  %25 = load i16, ptr %.04043, align 1, !tbaa !61
  %26 = tail call i16 @llvm.bswap.i16(i16 %25)
  %27 = zext i16 %26 to i32
  %28 = load i16, ptr %21, align 1, !tbaa !61
  %29 = tail call i16 @llvm.bswap.i16(i16 %28)
  %30 = zext i16 %29 to i32
  %31 = add nuw nsw i32 %30, %27
  %32 = lshr i32 %31, 9
  %33 = trunc nuw i32 %32 to i8
  %34 = getelementptr i8, ptr %13, i64 1
  store i8 %33, ptr %34, align 1, !tbaa !61
  %35 = getelementptr inbounds nuw i8, ptr %.04142, i64 4
  store i8 %33, ptr %35, align 1, !tbaa !61
  %36 = getelementptr inbounds nuw i8, ptr %.04043, i64 2
  %37 = load i16, ptr %36, align 1, !tbaa !61
  %38 = trunc i16 %37 to i8
  store i8 %38, ptr %13, align 1, !tbaa !61
  %39 = getelementptr inbounds nuw i8, ptr %.04142, i64 3
  store i8 %38, ptr %39, align 1, !tbaa !61
  store i8 %38, ptr %.04142, align 1, !tbaa !61
  %40 = getelementptr i8, ptr %13, i64 3
  store i8 %38, ptr %40, align 1, !tbaa !61
  %41 = getelementptr inbounds nuw i8, ptr %.04043, i64 4
  %42 = getelementptr inbounds nuw i8, ptr %.04142, i64 6
  %43 = add nuw nsw i32 %.044, 2
  %44 = icmp slt i32 %43, %4
  br i1 %44, label %9, label %._crit_edge, !llvm.loop !258

._crit_edge:                                      ; preds = %9, %5
  ret void
}